(dp0
Vengine
p1
Vxelatex
p2
sVpackages
p3
c__builtin__
set
p4
((lp5
Vhyperref
p6
aVfancyhdr
p7
aVgeometry
p8
aVbabel
p9
aVcolor
p10
aVepstopdf
p11
aVgraphicx
p12
aVnatbib
p13
atp14
Rp15
sVfiles_with_guttermarks
p16
g4
((lp17
S'thesis.tex'
p18
atp19
Rp20
sVsynctex
p21
I01
s.